; Function Attrs: nounwind uwtable
define internal fastcc i32 @ftp_readresp(ptr noundef %0, ptr noundef %1, ptr noundef nonnull writeonly captures(none) initializes((0, 4)) %2, ptr noundef nonnull %3) unnamed_addr #0 {
  %5 = alloca i32, align 4
  call void @llvm.lifetime.start.p0(i64 4, ptr nonnull %5) #10
  %6 = call i32 @Curl_pp_readresp(ptr noundef %0, i32 noundef 0, ptr noundef %1, ptr noundef nonnull %5, ptr noundef nonnull %3) #10
  %7 = load i32, ptr %5, align 4, !tbaa !147
  %8 = getelementptr inbounds nuw i8, ptr %0, i64 5048
  store i32 %7, ptr %8, align 8, !tbaa !169
  store i32 %7, ptr %2, align 4, !tbaa !147
  %9 = icmp eq i32 %7, 421
  br i1 %9, label %10, label %44

10:                                               ; preds = %4
  %11 = getelementptr inbounds nuw i8, ptr %0, i64 2658
  %12 = load i64, ptr %11, align 2
  %13 = and i64 %12, 2147483648
  %.not17 = icmp eq i64 %13, 0
  br i1 %.not17, label %22, label %14

14:                                               ; preds = %10
  %15 = getelementptr inbounds nuw i8, ptr %0, i64 4864
  %16 = load ptr, ptr %15, align 8, !tbaa !102
  %.not18 = icmp eq ptr %16, null
  br i1 %.not18, label %21, label %17

17:                                               ; preds = %14
  %18 = getelementptr inbounds nuw i8, ptr %16, i64 8
  %19 = load i32, ptr %18, align 8, !tbaa !103
  %20 = icmp sgt i32 %19, 0
  br i1 %20, label %21, label %22

21:                                               ; preds = %17, %14
  call void (ptr, ptr, ...) @Curl_infof(ptr noundef nonnull %0, ptr noundef nonnull @.str.6) #10
  br label %22

22:                                               ; preds = %21, %17, %10
  %23 = getelementptr inbounds nuw i8, ptr %0, i64 24
  %24 = load ptr, ptr %23, align 8, !tbaa !105
  %25 = getelementptr inbounds nuw i8, ptr %24, i64 1358
  %26 = load i8, ptr %25, align 2, !tbaa !136
  %.not = icmp eq i8 %26, 0
  br i1 %.not, label %_ftp_state.exit, label %27

27:                                               ; preds = %22
  %28 = load i64, ptr %11, align 2
  %29 = and i64 %28, 2147483648
  %.not.i = icmp eq i64 %29, 0
  br i1 %.not.i, label %_ftp_state.exit, label %30

30:                                               ; preds = %27
  %31 = getelementptr inbounds nuw i8, ptr %0, i64 4864
  %32 = load ptr, ptr %31, align 8, !tbaa !102
  %.not20.i = icmp eq ptr %32, null
  br i1 %.not20.i, label %39, label %33

33:                                               ; preds = %30
  %34 = getelementptr inbounds nuw i8, ptr %32, i64 8
  %35 = load i32, ptr %34, align 8, !tbaa !103
  %36 = icmp sgt i32 %35, 0
  %37 = load i32, ptr getelementptr inbounds nuw (i8, ptr @Curl_trc_feat_ftp, i64 8), align 8
  %38 = icmp sgt i32 %37, 0
  %or.cond.i = select i1 %36, i1 %38, i1 false
  br i1 %or.cond.i, label %40, label %_ftp_state.exit

39:                                               ; preds = %30
  %.old.i = load i32, ptr getelementptr inbounds nuw (i8, ptr @Curl_trc_feat_ftp, i64 8), align 8, !tbaa !103
  %.old1.i = icmp sgt i32 %.old.i, 0
  br i1 %.old1.i, label %40, label %_ftp_state.exit

40:                                               ; preds = %39, %33
  %41 = zext i8 %26 to i64
  %42 = getelementptr inbounds nuw [35 x ptr], ptr @ftp_state_names, i64 0, i64 %41
  %43 = load ptr, ptr %42, align 8, !tbaa !7
  call void (ptr, ptr, ...) @Curl_trc_ftp(ptr noundef nonnull %0, ptr noundef nonnull @.str.7, ptr noundef %43, ptr noundef nonnull @.str.9) #10
  br label %_ftp_state.exit

_ftp_state.exit:                                  ; preds = %22, %27, %33, %39, %40
  store i8 0, ptr %25, align 2, !tbaa !136
  br label %44

44:                                               ; preds = %4, %_ftp_state.exit
  %.0 = phi i32 [ 28, %_ftp_state.exit ], [ %6, %4 ]
  call void @llvm.lifetime.end.p0(i64 4, ptr nonnull %5) #10
  ret i32 %.0
}